target datalayout = "e-m:e-p270:32:32-p271:32:32-p272:64:64-i64:64-i128:128-f80:128-n8:16:32:64-S128"
target triple = "x86_64-unknown-linux-gnu"

%struct.CharBackend = type { ptr, ptr, ptr, ptr, ptr, ptr, i32, i32 }
%struct.Chardev = type { %struct.Object, %struct.QemuMutex, ptr, ptr, ptr, i32, i32, i8, ptr, ptr, [1 x i64] }
%struct.Object = type { ptr, ptr, ptr, i32, ptr }
%struct.QemuMutex = type { %union.pthread_mutex_t, i8 }
%union.pthread_mutex_t = type { %struct.__pthread_mutex_s }
%struct.__pthread_mutex_s = type { i32, i32, i32, i32, i32, i16, i16, %struct.__pthread_internal_list }
%struct.__pthread_internal_list = type { ptr, ptr }

@.str.7 = private unnamed_addr constant [1 x i8] zeroinitializer, align 1

; Function Attrs: nounwind sspstrong uwtable
define internal void @get_chr(ptr noundef %obj, ptr noundef %v, ptr noundef %name, ptr noundef %opaque, ptr noundef %errp) #0 {
entry:
  %obj.addr = alloca ptr, align 8
  %v.addr = alloca ptr, align 8
  %name.addr = alloca ptr, align 8
  %opaque.addr = alloca ptr, align 8
  %errp.addr = alloca ptr, align 8
  %be = alloca ptr, align 8
  %p = alloca ptr, align 8
  store ptr %obj, ptr %obj.addr, align 8
  store ptr %v, ptr %v.addr, align 8
  store ptr %name, ptr %name.addr, align 8
  store ptr %opaque, ptr %opaque.addr, align 8
  store ptr %errp, ptr %errp.addr, align 8
  %0 = load ptr, ptr %obj.addr, align 8
  %1 = load ptr, ptr %opaque.addr, align 8
  %call = call ptr @object_field_prop_ptr(ptr noundef %0, ptr noundef %1)
  store ptr %call, ptr %be, align 8
  %2 = load ptr, ptr %be, align 8
  %chr = getelementptr inbounds %struct.CharBackend, ptr %2, i32 0, i32 0
  %3 = load ptr, ptr %chr, align 8
  %tobool = icmp ne ptr %3, null
  br i1 %tobool, label %land.lhs.true, label %cond.false

land.lhs.true:                                    ; preds = %entry
  %4 = load ptr, ptr %be, align 8
  %chr1 = getelementptr inbounds %struct.CharBackend, ptr %4, i32 0, i32 0
  %5 = load ptr, ptr %chr1, align 8
  %label = getelementptr inbounds %struct.Chardev, ptr %5, i32 0, i32 3
  %6 = load ptr, ptr %label, align 8
  %tobool2 = icmp ne ptr %6, null
  br i1 %tobool2, label %cond.true, label %cond.false

cond.true:                                        ; preds = %land.lhs.true
  %7 = load ptr, ptr %be, align 8
  %chr3 = getelementptr inbounds %struct.CharBackend, ptr %7, i32 0, i32 0
  %8 = load ptr, ptr %chr3, align 8
  %label4 = getelementptr inbounds %struct.Chardev, ptr %8, i32 0, i32 3
  %9 = load ptr, ptr %label4, align 8
  br label %cond.end

cond.false:                                       ; preds = %land.lhs.true, %entry
  br label %cond.end

cond.end:                                         ; preds = %cond.false, %cond.true
  %cond = phi ptr [ %9, %cond.true ], [ @.str.7, %cond.false ]
  %call5 = call noalias ptr @g_strdup(ptr noundef %cond)
  store ptr %call5, ptr %p, align 8
  %10 = load ptr, ptr %v.addr, align 8
  %11 = load ptr, ptr %name.addr, align 8
  %12 = load ptr, ptr %errp.addr, align 8
  %call6 = call zeroext i1 @visit_type_str(ptr noundef %10, ptr noundef %11, ptr noundef %p, ptr noundef %12)
  %13 = load ptr, ptr %p, align 8
  call void @g_free(ptr noundef %13)
  ret void
}