; Function Attrs: nounwind sspstrong uwtable
define internal void @get_chr(ptr noundef %obj, ptr noundef %v, ptr noundef %name, ptr noundef %opaque, ptr noundef %errp) #0 {
entry:
  %p = alloca ptr, align 8
  %call = tail call ptr @object_field_prop_ptr(ptr noundef %obj, ptr noundef %opaque) #10
  %0 = load ptr, ptr %call, align 8
  %tobool.not = icmp eq ptr %0, null
  br i1 %tobool.not, label %cond.end, label %land.lhs.true

land.lhs.true:                                    ; preds = %entry
  %label = getelementptr inbounds nuw i8, ptr %0, i64 96
  %1 = load ptr, ptr %label, align 8
  %tobool2.not = icmp eq ptr %1, null
  %spec.select = select i1 %tobool2.not, ptr @.str.7, ptr %1
  br label %cond.end

cond.end:                                         ; preds = %land.lhs.true, %entry
  %cond = phi ptr [ @.str.7, %entry ], [ %spec.select, %land.lhs.true ]
  %call5 = tail call noalias ptr @g_strdup(ptr noundef nonnull %cond) #10
  store ptr %call5, ptr %p, align 8
  %call6 = call zeroext i1 @visit_type_str(ptr noundef %v, ptr noundef %name, ptr noundef nonnull %p, ptr noundef %errp) #10
  %2 = load ptr, ptr %p, align 8
  call void @g_free(ptr noundef %2) #10
  ret void
}